target datalayout = "e-m:e-p270:32:32-p271:32:32-p272:64:64-i64:64-i128:128-f80:128-n8:16:32:64-S128"
target triple = "x86_64-pc-linux-gnu"

%"class.std::basic_ostream" = type { ptr, %"class.std::basic_ios" }
%"class.std::basic_ios" = type { %"class.std::ios_base", ptr, i8, i8, ptr, ptr, ptr, ptr }
%"class.std::ios_base" = type { ptr, i64, i64, i32, i32, i32, ptr, %"struct.std::ios_base::_Words", [8 x %"struct.std::ios_base::_Words"], i32, ptr, %"class.std::locale" }
%"struct.std::ios_base::_Words" = type { ptr, i64 }
%"class.std::locale" = type { ptr }
%"class.cv::bioinspired::BasicRetinaFilter" = type { %"class.cv::bioinspired::TemplateBuffer", %"class.std::valarray", i32, i32, %"class.std::valarray", %"class.std::valarray", %"class.std::valarray", float, float, float, float, float, float, float, float }
%"class.cv::bioinspired::TemplateBuffer" = type { ptr, %"class.std::valarray", i64, i64, i64, i64, i64 }
%"class.std::valarray" = type { i64, ptr }

@_ZSt4cerr = external global %"class.std::basic_ostream", align 8
@.str.3 = private unnamed_addr constant [126 x i8] c"BasicRetinaFilter::spatial constant of the low pass filter must be superior to zero !!! correcting parameter setting to 0,001\00", align 1
@.str.4 = private unnamed_addr constant [100 x i8] c"BasicRetinaFilter::spatial filtering coefficient must be superior to zero, correcting value to 0.01\00", align 1

; Function Attrs: inlinehint mustprogress nounwind uwtable
define linkonce_odr noundef i32 @_ZStorSt12_Ios_IostateS_(i32 noundef %0, i32 noundef %1) #6 comdat {
  %3 = alloca i32, align 4
  %4 = alloca i32, align 4
  store i32 %0, ptr %3, align 4, !tbaa !161
  store i32 %1, ptr %4, align 4, !tbaa !161
  %5 = load i32, ptr %3, align 4, !tbaa !161
  %6 = load i32, ptr %4, align 4, !tbaa !161
  %7 = or i32 %5, %6
  ret i32 %7
}

; Function Attrs: mustprogress nounwind uwtable
define available_externally noundef i32 @_ZNKSt9basic_iosIcSt11char_traitsIcEE7rdstateEv(ptr noundef nonnull align 8 dereferenceable(264) %0) #7 align 2 {
  %2 = alloca ptr, align 8
  store ptr %0, ptr %2, align 8, !tbaa !159
  %3 = load ptr, ptr %2, align 8
  %4 = getelementptr inbounds nuw %"class.std::ios_base", ptr %3, i32 0, i32 5
  %5 = load i32, ptr %4, align 8, !tbaa !163
  ret i32 %5
}

; Function Attrs: mustprogress nounwind uwtable
define linkonce_odr hidden noundef i64 @_ZNSt11char_traitsIcE6lengthEPKc(ptr noundef %0) #7 comdat align 2 {
  %2 = alloca ptr, align 8
  store ptr %0, ptr %2, align 8, !tbaa !40
  %3 = load ptr, ptr %2, align 8, !tbaa !40
  %4 = call i64 @strlen(ptr noundef %3) #3
  ret i64 %4
}

; Function Attrs: mustprogress uwtable
define available_externally void @_ZNSt9basic_iosIcSt11char_traitsIcEE8setstateESt12_Ios_Iostate(ptr noundef nonnull align 8 dereferenceable(264) %0, i32 noundef %1) #4 align 2 {
  %3 = alloca ptr, align 8
  %4 = alloca i32, align 4
  store ptr %0, ptr %3, align 8, !tbaa !159
  store i32 %1, ptr %4, align 4, !tbaa !161
  %5 = load ptr, ptr %3, align 8
  %6 = call noundef i32 @_ZNKSt9basic_iosIcSt11char_traitsIcEE7rdstateEv(ptr noundef nonnull align 8 dereferenceable(264) %5)
  %7 = load i32, ptr %4, align 4, !tbaa !161
  %8 = call noundef i32 @_ZStorSt12_Ios_IostateS_(i32 noundef %6, i32 noundef %7)
  call void @_ZNSt9basic_iosIcSt11char_traitsIcEE5clearESt12_Ios_Iostate(ptr noundef nonnull align 8 dereferenceable(264) %5, i32 noundef %8)
  ret void
}

; Function Attrs: inlinehint mustprogress nounwind uwtable
define linkonce_odr hidden noundef nonnull align 4 dereferenceable(4) ptr @_ZNSt8valarrayIfEixEm(ptr noundef nonnull align 8 dereferenceable(16) %0, i64 noundef %1) #6 comdat align 2 {
  %3 = alloca ptr, align 8
  %4 = alloca i64, align 8
  store ptr %0, ptr %3, align 8, !tbaa !34
  store i64 %1, ptr %4, align 8, !tbaa !25
  %5 = load ptr, ptr %3, align 8
  %6 = getelementptr inbounds nuw %"class.std::valarray", ptr %5, i32 0, i32 1
  %7 = load ptr, ptr %6, align 8, !tbaa !37
  %8 = load i64, ptr %4, align 8, !tbaa !25
  %9 = getelementptr inbounds nuw float, ptr %7, i64 %8
  ret ptr %9
}

; Function Attrs: inlinehint mustprogress nounwind uwtable
define linkonce_odr noundef float @_ZSt4sqrtf(float noundef %0) #6 comdat {
  %2 = alloca float, align 4
  store float %0, ptr %2, align 4, !tbaa !26
  %3 = load float, ptr %2, align 4, !tbaa !26
  %4 = call float @sqrtf(float noundef %3) #3, !tbaa !8
  ret float %4
}

; Function Attrs: mustprogress uwtable
define available_externally noundef nonnull align 8 dereferenceable(8) ptr @_ZNSolsEPFRSoS_E(ptr noundef nonnull align 8 dereferenceable(8) %0, ptr noundef %1) #4 align 2 {
  %3 = alloca ptr, align 8
  %4 = alloca ptr, align 8
  store ptr %0, ptr %3, align 8, !tbaa !38
  store ptr %1, ptr %4, align 8, !tbaa !42
  %5 = load ptr, ptr %3, align 8
  %6 = load ptr, ptr %4, align 8, !tbaa !42
  %7 = call noundef nonnull align 8 dereferenceable(8) ptr %6(ptr noundef nonnull align 8 dereferenceable(8) %5)
  ret ptr %7
}

; Function Attrs: inlinehint mustprogress uwtable
define available_externally noundef nonnull align 8 dereferenceable(8) ptr @_ZStlsISt11char_traitsIcEERSt13basic_ostreamIcT_ES5_PKc(ptr noundef nonnull align 8 dereferenceable(8) %0, ptr noundef %1) #5 {
  %3 = alloca ptr, align 8
  %4 = alloca ptr, align 8
  store ptr %0, ptr %3, align 8, !tbaa !38
  store ptr %1, ptr %4, align 8, !tbaa !40
  %5 = load ptr, ptr %4, align 8, !tbaa !40
  %6 = icmp ne ptr %5, null
  br i1 %6, label %13, label %7

7:                                                ; preds = %2
  %8 = load ptr, ptr %3, align 8, !tbaa !38
  %9 = load ptr, ptr %8, align 8, !tbaa !27
  %10 = getelementptr i8, ptr %9, i64 -24
  %11 = load i64, ptr %10, align 8
  %12 = getelementptr inbounds i8, ptr %8, i64 %11
  call void @_ZNSt9basic_iosIcSt11char_traitsIcEE8setstateESt12_Ios_Iostate(ptr noundef nonnull align 8 dereferenceable(264) %12, i32 noundef 1)
  br label %19

13:                                               ; preds = %2
  %14 = load ptr, ptr %3, align 8, !tbaa !38
  %15 = load ptr, ptr %4, align 8, !tbaa !40
  %16 = load ptr, ptr %4, align 8, !tbaa !40
  %17 = call noundef i64 @_ZNSt11char_traitsIcE6lengthEPKc(ptr noundef %16)
  %18 = call noundef nonnull align 8 dereferenceable(8) ptr @_ZSt16__ostream_insertIcSt11char_traitsIcEERSt13basic_ostreamIT_T0_ES6_PKS3_l(ptr noundef nonnull align 8 dereferenceable(8) %14, ptr noundef %15, i64 noundef %17)
  br label %19

19:                                               ; preds = %13, %7
  %20 = load ptr, ptr %3, align 8, !tbaa !38
  ret ptr %20
}

; Function Attrs: mustprogress uwtable
define hidden void @_ZN2cv11bioinspired17BasicRetinaFilter21setLPfilterParametersEfffj(ptr noundef nonnull align 8 dereferenceable(168) %0, float noundef %1, float noundef %2, float noundef %3, i32 noundef %4) #4 align 2 {
  %6 = alloca ptr, align 8
  %7 = alloca float, align 4
  %8 = alloca float, align 4
  %9 = alloca float, align 4
  %10 = alloca i32, align 4
  %11 = alloca float, align 4
  %12 = alloca float, align 4
  %13 = alloca float, align 4
  %14 = alloca float, align 4
  %15 = alloca i32, align 4
  %16 = alloca float, align 4
  %17 = alloca float, align 4
  store ptr %0, ptr %6, align 8, !tbaa !3
  store float %1, ptr %7, align 4, !tbaa !26
  store float %2, ptr %8, align 4, !tbaa !26
  store float %3, ptr %9, align 4, !tbaa !26
  store i32 %4, ptr %10, align 4, !tbaa !8
  %18 = load ptr, ptr %6, align 8
  call void @llvm.lifetime.start.p0(i64 4, ptr %11) #3
  %19 = load float, ptr %7, align 4, !tbaa !26
  %20 = load float, ptr %8, align 4, !tbaa !26
  %21 = fadd float %19, %20
  store float %21, ptr %11, align 4, !tbaa !26
  call void @llvm.lifetime.start.p0(i64 4, ptr %12) #3
  %22 = load float, ptr %9, align 4, !tbaa !26
  store float %22, ptr %12, align 4, !tbaa !26
  %23 = load float, ptr %9, align 4, !tbaa !26
  %24 = fcmp ole float %23, 0.000000e+00
  br i1 %24, label %25, label %28

25:                                               ; preds = %5
  store float 0x3F50624DE0000000, ptr %12, align 4, !tbaa !26
  %26 = call noundef nonnull align 8 dereferenceable(8) ptr @_ZStlsISt11char_traitsIcEERSt13basic_ostreamIcT_ES5_PKc(ptr noundef nonnull align 8 dereferenceable(8) @_ZSt4cerr, ptr noundef @.str.3)
  %27 = call noundef nonnull align 8 dereferenceable(8) ptr @_ZNSolsEPFRSoS_E(ptr noundef nonnull align 8 dereferenceable(8) %26, ptr noundef @_ZSt4endlIcSt11char_traitsIcEERSt13basic_ostreamIT_T0_ES6_)
  br label %28

28:                                               ; preds = %25, %5
  call void @llvm.lifetime.start.p0(i64 4, ptr %13) #3
  %29 = load float, ptr %12, align 4, !tbaa !26
  %30 = load float, ptr %12, align 4, !tbaa !26
  %31 = fmul float %29, %30
  store float %31, ptr %13, align 4, !tbaa !26
  call void @llvm.lifetime.start.p0(i64 4, ptr %14) #3
  store float 0x3FE99999A0000000, ptr %14, align 4, !tbaa !26
  call void @llvm.lifetime.start.p0(i64 4, ptr %15) #3
  %32 = load i32, ptr %10, align 4, !tbaa !8
  %33 = mul i32 %32, 3
  store i32 %33, ptr %15, align 4, !tbaa !8
  %34 = load float, ptr %12, align 4, !tbaa !26
  %35 = fcmp ole float %34, 0.000000e+00
  br i1 %35, label %36, label %39

36:                                               ; preds = %28
  %37 = call noundef nonnull align 8 dereferenceable(8) ptr @_ZStlsISt11char_traitsIcEERSt13basic_ostreamIcT_ES5_PKc(ptr noundef nonnull align 8 dereferenceable(8) @_ZSt4cerr, ptr noundef @.str.4)
  %38 = call noundef nonnull align 8 dereferenceable(8) ptr @_ZNSolsEPFRSoS_E(ptr noundef nonnull align 8 dereferenceable(8) %37, ptr noundef @_ZSt4endlIcSt11char_traitsIcEERSt13basic_ostreamIT_T0_ES6_)
  store float 0x3F1A36E2E0000000, ptr %13, align 4, !tbaa !26
  br label %39

39:                                               ; preds = %36, %28
  call void @llvm.lifetime.start.p0(i64 4, ptr %16) #3
  %40 = load float, ptr %11, align 4, !tbaa !26
  %41 = fadd float 1.000000e+00, %40
  %42 = load float, ptr %14, align 4, !tbaa !26
  %43 = fmul float 2.000000e+00, %42
  %44 = load float, ptr %13, align 4, !tbaa !26
  %45 = fmul float %43, %44
  %46 = fdiv float %41, %45
  store float %46, ptr %16, align 4, !tbaa !26
  call void @llvm.lifetime.start.p0(i64 4, ptr %17) #3
  %47 = load float, ptr %16, align 4, !tbaa !26
  %48 = fadd float 1.000000e+00, %47
  %49 = load float, ptr %16, align 4, !tbaa !26
  %50 = fadd float 1.000000e+00, %49
  %51 = load float, ptr %16, align 4, !tbaa !26
  %52 = fadd float 1.000000e+00, %51
  %53 = call float @llvm.fmuladd.f32(float %50, float %52, float -1.000000e+00)
  %54 = call noundef float @_ZSt4sqrtf(float noundef %53)
  %55 = fsub float %48, %54
  %56 = getelementptr inbounds nuw %"class.cv::bioinspired::BasicRetinaFilter", ptr %18, i32 0, i32 4
  %57 = load i32, ptr %15, align 4, !tbaa !8
  %58 = zext i32 %57 to i64
  %59 = call noundef nonnull align 4 dereferenceable(4) ptr @_ZNSt8valarrayIfEixEm(ptr noundef nonnull align 8 dereferenceable(16) %56, i64 noundef %58) #3
  store float %55, ptr %59, align 4, !tbaa !26
  store float %55, ptr %17, align 4, !tbaa !26
  %60 = load float, ptr %17, align 4, !tbaa !26
  %61 = fsub float 1.000000e+00, %60
  %62 = load float, ptr %17, align 4, !tbaa !26
  %63 = fsub float 1.000000e+00, %62
  %64 = fmul float %61, %63
  %65 = load float, ptr %17, align 4, !tbaa !26
  %66 = fsub float 1.000000e+00, %65
  %67 = fmul float %64, %66
  %68 = load float, ptr %17, align 4, !tbaa !26
  %69 = fsub float 1.000000e+00, %68
  %70 = fmul float %67, %69
  %71 = load float, ptr %11, align 4, !tbaa !26
  %72 = fadd float 1.000000e+00, %71
  %73 = fdiv float %70, %72
  %74 = getelementptr inbounds nuw %"class.cv::bioinspired::BasicRetinaFilter", ptr %18, i32 0, i32 4
  %75 = load i32, ptr %15, align 4, !tbaa !8
  %76 = add i32 1, %75
  %77 = zext i32 %76 to i64
  %78 = call noundef nonnull align 4 dereferenceable(4) ptr @_ZNSt8valarrayIfEixEm(ptr noundef nonnull align 8 dereferenceable(16) %74, i64 noundef %77) #3
  store float %73, ptr %78, align 4, !tbaa !26
  %79 = load float, ptr %8, align 4, !tbaa !26
  %80 = getelementptr inbounds nuw %"class.cv::bioinspired::BasicRetinaFilter", ptr %18, i32 0, i32 4
  %81 = load i32, ptr %15, align 4, !tbaa !8
  %82 = add i32 2, %81
  %83 = zext i32 %82 to i64
  %84 = call noundef nonnull align 4 dereferenceable(4) ptr @_ZNSt8valarrayIfEixEm(ptr noundef nonnull align 8 dereferenceable(16) %80, i64 noundef %83) #3
  store float %79, ptr %84, align 4, !tbaa !26
  call void @llvm.lifetime.end.p0(i64 4, ptr %17) #3
  call void @llvm.lifetime.end.p0(i64 4, ptr %16) #3
  call void @llvm.lifetime.end.p0(i64 4, ptr %15) #3
  call void @llvm.lifetime.end.p0(i64 4, ptr %14) #3
  call void @llvm.lifetime.end.p0(i64 4, ptr %13) #3
  call void @llvm.lifetime.end.p0(i64 4, ptr %12) #3
  call void @llvm.lifetime.end.p0(i64 4, ptr %11) #3
  ret void
}