; Function Attrs: mustprogress uwtable
define hidden void @_ZN2cv11bioinspired17BasicRetinaFilter21setLPfilterParametersEfffj(ptr noundef nonnull readonly align 8 captures(none) dereferenceable(168) %0, float noundef %1, float noundef %2, float noundef %3, i32 noundef %4) local_unnamed_addr #3 align 2 {
  %6 = fcmp ugt float %3, 0.000000e+00
  br i1 %6, label %28, label %7

7:                                                ; preds = %5
  %8 = tail call noundef nonnull align 8 dereferenceable(8) ptr @_ZSt16__ostream_insertIcSt11char_traitsIcEERSt13basic_ostreamIT_T0_ES6_PKS3_l(ptr noundef nonnull align 8 dereferenceable(8) @_ZSt4cerr, ptr noundef nonnull @.str.3, i64 noundef 125)
  %9 = load ptr, ptr @_ZSt4cerr, align 8, !tbaa !13
  %10 = getelementptr i8, ptr %9, i64 -24
  %11 = load i64, ptr %10, align 8
  %12 = getelementptr inbounds i8, ptr @_ZSt4cerr, i64 %11
  %13 = getelementptr inbounds nuw i8, ptr %12, i64 240
  %14 = load ptr, ptr %13, align 8, !tbaa !32
  %.not.i.i.i = icmp eq ptr %14, null
  br i1 %.not.i.i.i, label %15, label %_ZSt13__check_facetISt5ctypeIcEERKT_PS3_.exit.i.i

15:                                               ; preds = %7
  tail call void @_ZSt16__throw_bad_castv() #20
  unreachable

_ZSt13__check_facetISt5ctypeIcEERKT_PS3_.exit.i.i: ; preds = %7
  %16 = getelementptr inbounds nuw i8, ptr %14, i64 56
  %17 = load i8, ptr %16, align 8, !tbaa !48
  %.not.i1.i.i = icmp eq i8 %17, 0
  br i1 %.not.i1.i.i, label %21, label %18

18:                                               ; preds = %_ZSt13__check_facetISt5ctypeIcEERKT_PS3_.exit.i.i
  %19 = getelementptr inbounds nuw i8, ptr %14, i64 67
  %20 = load i8, ptr %19, align 1, !tbaa !54
  br label %.thread

21:                                               ; preds = %_ZSt13__check_facetISt5ctypeIcEERKT_PS3_.exit.i.i
  tail call void @_ZNKSt5ctypeIcE13_M_widen_initEv(ptr noundef nonnull align 8 dereferenceable(570) %14)
  %22 = load ptr, ptr %14, align 8, !tbaa !13
  %23 = getelementptr inbounds nuw i8, ptr %22, i64 48
  %24 = load ptr, ptr %23, align 8
  %25 = tail call noundef signext i8 %24(ptr noundef nonnull align 8 dereferenceable(570) %14, i8 noundef signext 10)
  br label %.thread

.thread:                                          ; preds = %21, %18
  %.0.i.i.i = phi i8 [ %20, %18 ], [ %25, %21 ]
  %26 = tail call noundef nonnull align 8 dereferenceable(8) ptr @_ZNSo3putEc(ptr noundef nonnull align 8 dereferenceable(8) @_ZSt4cerr, i8 noundef signext %.0.i.i.i)
  %27 = tail call noundef nonnull align 8 dereferenceable(8) ptr @_ZNSo5flushEv(ptr noundef nonnull align 8 dereferenceable(8) %26)
  br label %31

28:                                               ; preds = %5
  %29 = fmul float %3, %3
  %30 = fmul float %29, 0x3FF99999A0000000
  br label %31

31:                                               ; preds = %28, %.thread
  %.023 = phi float [ %30, %28 ], [ 0x3EBAD7F2E0000000, %.thread ]
  %32 = mul i32 %4, 3
  %33 = fadd float %1, %2
  %34 = fadd float %33, 1.000000e+00
  %35 = fdiv float %34, %.023
  %36 = fadd float %35, 1.000000e+00
  %37 = tail call float @llvm.fmuladd.f32(float %36, float %36, float -1.000000e+00)
  %38 = tail call noundef float @sqrtf(float noundef %37) #19, !tbaa !61
  %39 = fsub float %36, %38
  %40 = zext i32 %32 to i64
  %41 = getelementptr inbounds nuw i8, ptr %0, i64 96
  %42 = load ptr, ptr %41, align 8, !tbaa !10
  %43 = getelementptr inbounds nuw float, ptr %42, i64 %40
  store float %39, ptr %43, align 4, !tbaa !11
  %44 = fsub float 1.000000e+00, %39
  %45 = fmul float %44, %44
  %46 = fmul float %44, %45
  %47 = fmul float %44, %46
  %48 = fdiv float %47, %34
  %49 = add i32 %32, 1
  %50 = zext i32 %49 to i64
  %51 = getelementptr inbounds nuw float, ptr %42, i64 %50
  store float %48, ptr %51, align 4, !tbaa !11
  %52 = add i32 %32, 2
  %53 = zext i32 %52 to i64
  %54 = getelementptr inbounds nuw float, ptr %42, i64 %53
  store float %2, ptr %54, align 4, !tbaa !11
  ret void
}